BL51 BANKED LINKER/LOCATER V6.22                                                        07/19/2013  23:45:31  PAGE 1


BL51 BANKED LINKER/LOCATER V6.22, INVOKED BY:
C:\KEIL\C51\BIN\BL51.EXE .\output\OS_CORE.obj, .\output\OS_Q.obj, .\output\OS_SEM.obj, .\output\main.obj, .\output\cpu.o
>> bj, .\output\OS_CPU_C.obj, .\output\OS_CPU_A.obj TO .\output\test PRINT (.\output\test.m51) RAMSIZE (256) OVERLAY (MA
>> IN ~ TASKB, MAIN ~ TASKC, MAIN ~ TASKD) CODE (0X0000-0XFFFF) XDATA (0X0000-0X0FFF, 0XC000-0XC0FF)


MEMORY MODEL: LARGE


INPUT MODULES INCLUDED:
  .\output\OS_CORE.obj (OS_CORE)
  .\output\OS_Q.obj (OS_Q)
  .\output\OS_SEM.obj (OS_SEM)
  .\output\main.obj (MAIN)
  .\output\cpu.obj (CPU)
  .\output\OS_CPU_C.obj (OS_CPU_C)
  .\output\OS_CPU_A.obj (OS_CPU_A_ASM)
  C:\KEIL\C51\LIB\C51L.LIB (?C_STARTUP)
  C:\KEIL\C51\LIB\C51L.LIB (?C_INIT)


LINK MAP OF MODULE:  .\output\test (OS_CORE)


            TYPE    BASE      LENGTH    RELOCATION   SEGMENT NAME
            -----------------------------------------------------

            * * * * * * *   D A T A   M E M O R Y   * * * * * * *
            REG     0000H     0008H     ABSOLUTE     "REG BANK 0"
            REG     0008H     0008H     ABSOLUTE     "REG BANK 1"
            DATA    0010H     000DH     UNIT         ?DT?CPU
            DATA    001DH     000AH     UNIT         ?DT?OS_CORE
            DATA    0027H     0007H     UNIT         ?DT?OS_CPU_C
            IDATA   002EH     0004H     UNIT         ?ID?OS_SEM
            IDATA   0032H     0002H     UNIT         ?STACK

            * * * * * * *   C O D E   M E M O R Y   * * * * * * *
            CODE    0000H     0003H     ABSOLUTE     
            CODE    0003H     0003H     ABSOLUTE     
                    0006H     0005H                  *** GAP ***
            CODE    000BH     0003H     ABSOLUTE     
            CODE    000EH     003CH     UNIT         ?PR?__OSTASKCREATE?OS_CORE
                    004AH     0001H                  *** GAP ***
            CODE    004BH     0003H     ABSOLUTE     
            CODE    004EH     00E2H     UNIT         ?PR?INIT_CPU?CPU
            CODE    0130H     008CH     UNIT         ?PR?C_OSCTXSW?OS_CPU_A
            CODE    01BCH     008CH     UNIT         ?C_C51STARTUP
            CODE    0248H     007CH     UNIT         ?PR?_OSTASKSTKINIT?OS_CPU_A
            CODE    02C4H     0074H     UNIT         ?PR?_OSSEMPEND?OS_SEM
            CODE    0338H     0071H     UNIT         ?PR?EXT0_INT?CPU
            CODE    03A9H     005EH     UNIT         ?PR?_OSWAIT?OS_CORE
            CODE    0407H     0049H     UNIT         ?PR?_OSSEMPOST?OS_SEM
            CODE    0450H     0046H     UNIT         ?PR?OSTICKISR?OS_CPU_C
            CODE    0496H     0044H     UNIT         ?PR?_STKDELB?OS_CPU_C
            CODE    04DAH     0043H     UNIT         ?PR?_STKDELA?OS_CPU_C
            CODE    051DH     003FH     UNIT         ?PR?TASKA?MAIN
            CODE    055CH     0033H     UNIT         ?PR?TASKB?MAIN
            CODE    058FH     0033H     UNIT         ?PR?TASKC?MAIN
BL51 BANKED LINKER/LOCATER V6.22                                                      07/19/2013  23:45:31  PAGE 2


            CODE    05C2H     0033H     UNIT         ?PR?LOADCTX?OS_CPU_A
            CODE    05F5H     002FH     UNIT         ?PR?OSINTCTXSW?OS_CPU_A
            CODE    0624H     002EH     UNIT         ?PR?TASKD?MAIN
            CODE    0652H     002CH     UNIT         ?PR?_OSSEMCREATE?OS_SEM
            CODE    067EH     0028H     UNIT         ?PR?_OSTASKSTKDEL?OS_CPU_C
            CODE    06A6H     0027H     UNIT         ?PR?EXT4_INT?CPU
            CODE    06CDH     0024H     UNIT         ?PR?OSINTEXIT?OS_CORE
            CODE    06F1H     0023H     UNIT         ?PR?_OSTASKDEL?OS_CORE
            CODE    0714H     0023H     UNIT         ?PR?_OSTIMEDLY?OS_CORE
            CODE    0737H     0022H     UNIT         ?C_INITSEG
            CODE    0759H     0020H     UNIT         ?PR?OSTIMETICK?OS_CORE
            CODE    0779H     001AH     UNIT         ?PR?_OSTASKRESUME?OS_CORE
            CODE    0793H     0019H     UNIT         ?PR?_STKDELC?OS_CPU_C
            CODE    07ACH     0018H     UNIT         ?PR?_OS_TASKSUSPEND?OS_CORE
            CODE    07C4H     0018H     UNIT         ?PR?OSFINDNEXTRUNNINGTASK?OS_CORE
            CODE    07DCH     0014H     UNIT         ?PR?OSSCHED?OS_CORE
            CODE    07F0H     0014H     UNIT         ?PR?INIT_TASK?MAIN
            CODE    0804H     0012H     UNIT         ?PR?OSINIT?OS_CORE
            CODE    0816H     0011H     UNIT         ?PR?MAIN?MAIN
            CODE    0827H     0010H     UNIT         ?PR?OSCPUINIT?OS_CPU_C
            CODE    0837H     000DH     UNIT         ?PR?_OSTASKSUSPEND?OS_CORE
            CODE    0844H     000DH     UNIT         ?PR?OSCTXSW?OS_CPU_A
            CODE    0851H     000BH     UNIT         ?PR?_PUTCH?MAIN
            CODE    085CH     000AH     UNIT         ?PR?_OSTIMEDLYRESUME?OS_CORE
            CODE    0866H     0009H     UNIT         ?CO?OS_CORE



OVERLAY MAP OF MODULE:   .\output\test (OS_CORE)


SEGMENT
  +--> CALLED SEGMENT
---------------------
?PR?OSTICKISR?OS_CPU_C
  +--> ?PR?OSTIMETICK?OS_CORE
  +--> ?PR?OSINTEXIT?OS_CORE

?PR?OSTIMETICK?OS_CORE
  +--> ?CO?OS_CORE
  +--> ?PR?OSSCHED?OS_CORE

?PR?OSSCHED?OS_CORE
  +--> ?PR?OSFINDNEXTRUNNINGTASK?OS_CORE
  +--> ?PR?OSCTXSW?OS_CPU_A

?PR?OSCTXSW?OS_CPU_A
  +--> ?CO?OS_CORE
  +--> ?PR?C_OSCTXSW?OS_CPU_A

?PR?C_OSCTXSW?OS_CPU_A
  +--> ?PR?LOADCTX?OS_CPU_A

?PR?LOADCTX?OS_CPU_A
  +--> ?CO?OS_CORE

?PR?OSINTEXIT?OS_CORE
BL51 BANKED LINKER/LOCATER V6.22                                                      07/19/2013  23:45:31  PAGE 3


  +--> ?PR?OSFINDNEXTRUNNINGTASK?OS_CORE
  +--> ?PR?OSINTCTXSW?OS_CPU_A

?PR?OSINTCTXSW?OS_CPU_A
  +--> ?PR?OSCTXSW?OS_CPU_A
  +--> ?CO?OS_CORE
  +--> ?PR?C_OSCTXSW?OS_CPU_A

*** NEW ROOT ***************************************************

?C_C51STARTUP
  +--> ?PR?MAIN?MAIN
  +--> ?C_INITSEG

?PR?MAIN?MAIN
  +--> ?PR?OSINIT?OS_CORE
  +--> ?PR?INIT_TASK?MAIN
  +--> ?PR?__OSTASKCREATE?OS_CORE

?PR?OSINIT?OS_CORE
  +--> ?PR?OSCPUINIT?OS_CPU_C

?PR?INIT_TASK?MAIN
  +--> ?PR?INIT_CPU?CPU
  +--> ?PR?_PUTCH?MAIN
  +--> ?PR?_OSWAIT?OS_CORE

?PR?_OSWAIT?OS_CORE
  +--> ?PR?_OSTASKSUSPEND?OS_CORE
  +--> ?PR?_OSTIMEDLY?OS_CORE
  +--> ?PR?_OS_TASKSUSPEND?OS_CORE
  +--> ?PR?OSSCHED?OS_CORE

?PR?_OSTASKSUSPEND?OS_CORE
  +--> ?PR?_OS_TASKSUSPEND?OS_CORE
  +--> ?PR?OSSCHED?OS_CORE

?PR?_OS_TASKSUSPEND?OS_CORE
  +--> ?CO?OS_CORE

?PR?_OSTIMEDLY?OS_CORE
  +--> ?PR?_OS_TASKSUSPEND?OS_CORE
  +--> ?PR?OSSCHED?OS_CORE

?PR?__OSTASKCREATE?OS_CORE
  +--> ?CO?OS_CORE
  +--> ?PR?_OSTASKSTKINIT?OS_CPU_A
  +--> ?PR?OSSCHED?OS_CORE

?PR?_OSTASKSTKINIT?OS_CPU_A
  +--> ?CO?OS_CORE



SYMBOL TABLE OF MODULE:  .\output\test (OS_CORE)

  VALUE           TYPE          NAME
BL51 BANKED LINKER/LOCATER V6.22                                                      07/19/2013  23:45:31  PAGE 4


  ----------------------------------

  -------         MODULE        OS_CORE
  C:0000H         SYMBOL        _ICE_DUMMY_
  C:07ACH         PUBLIC        _OS_TaskSuspend
  D:0090H         PUBLIC        P1
  D:00B0H         PUBLIC        P3
  B:00A8H.7       PUBLIC        EA
  C:07DCH         PUBLIC        OSSched
  D:00A8H         PUBLIC        IE
  D:00B8H         PUBLIC        IP
  C:0837H         PUBLIC        _OSTaskSuspend
  D:001DH         PUBLIC        OSIntNesting
  C:0779H         PUBLIC        _OSTaskResume
  D:001EH         PUBLIC        OSTaskRuning
  D:0098H         PUBLIC        SCON
  D:0088H         PUBLIC        TCON
  C:0804H         PUBLIC        OSInit
  C:03A9H         PUBLIC        _OSWait
  D:001FH         PUBLIC        Os_Enter_Sum
  C:0759H         PUBLIC        OSTimeTick
  C:07C4H         PUBLIC        OSFindNextRunningTask
  D:0020H         PUBLIC        OSTaskID
  D:0021H         PUBLIC        OSWaitTick
  C:06F1H         PUBLIC        _OSTaskDel
  C:085CH         PUBLIC        _OSTimeDlyResume
  C:0714H         PUBLIC        _OSTimeDly
  C:0866H         PUBLIC        OSMapTbl
  D:00C8H         PUBLIC        T2CON
  D:0025H         PUBLIC        OSNextTaskID
  C:06CDH         PUBLIC        OSIntExit
  C:000EH         PUBLIC        __OSTaskCreate
  D:0026H         PUBLIC        OSTaskCreated
  D:00D0H         PUBLIC        PSW
  -------         PROC          OSINIT
  C:0804H         LINE#         87
  C:0804H         LINE#         89
  C:0807H         LINE#         90
  C:0809H         LINE#         95
  C:080BH         LINE#         96
  C:080EH         LINE#         97
  C:0810H         LINE#         98
  C:0812H         LINE#         99
  C:0815H         LINE#         100
  -------         ENDPROC       OSINIT
  -------         PROC          __OSTASKCREATE
  D:0001H         SYMBOL        TaskID
  D:0006H         SYMBOL        task
  D:0002H         SYMBOL        ptos
  C:000EH         LINE#         119
  C:0014H         LINE#         121
  C:001AH         LINE#         122
  C:001AH         LINE#         123
  C:001EH         LINE#         125
  C:0027H         LINE#         126
  C:0027H         LINE#         127
  C:002AH         LINE#         128
BL51 BANKED LINKER/LOCATER V6.22                                                      07/19/2013  23:45:31  PAGE 5


  C:002AH         LINE#         129
  C:0031H         LINE#         130
  C:0033H         LINE#         151
  C:003CH         LINE#         152
  C:003FH         LINE#         153
  C:0044H         LINE#         154
  C:0047H         LINE#         155
  C:0047H         LINE#         156
  C:0049H         LINE#         157
  -------         ENDPROC       __OSTASKCREATE
  -------         PROC          _OSTASKDEL
  D:0007H         SYMBOL        TaskID
  C:06F1H         LINE#         174
  C:06F1H         LINE#         176
  C:06F7H         LINE#         177
  C:06F7H         LINE#         178
  C:06FBH         LINE#         180
  C:0703H         LINE#         191
  C:0706H         LINE#         192
  C:0709H         LINE#         193
  C:070EH         LINE#         194
  C:0711H         LINE#         195
  C:0711H         LINE#         197
  C:0711H         LINE#         198
  C:0713H         LINE#         199
  C:0713H         LINE#         200
  -------         ENDPROC       _OSTASKDEL
  -------         PROC          _OSTASKRESUME
  D:0007H         SYMBOL        TaskID
  C:0779H         LINE#         217
  C:0779H         LINE#         219
  C:077FH         LINE#         220
  C:077FH         LINE#         221
  C:0783H         LINE#         223
  C:078AH         LINE#         234
  C:078FH         LINE#         235
  C:078FH         LINE#         236
  C:0792H         LINE#         237
  -------         ENDPROC       _OSTASKRESUME
  -------         PROC          _OS_TASKSUSPEND
  D:0007H         SYMBOL        TaskID
  C:07ACH         LINE#         254
  C:07ACH         LINE#         256
  C:07B2H         LINE#         257
  C:07B2H         LINE#         258
  C:07B6H         LINE#         260
  C:07BEH         LINE#         271
  C:07C3H         LINE#         272
  C:07C3H         LINE#         273
  -------         ENDPROC       _OS_TASKSUSPEND
  -------         PROC          _OSTASKSUSPEND
  D:0007H         SYMBOL        TaskID
  C:0837H         LINE#         291
  C:0837H         LINE#         293
  C:083DH         LINE#         295
  C:0840H         LINE#         296
  C:0843H         LINE#         297
BL51 BANKED LINKER/LOCATER V6.22                                                      07/19/2013  23:45:31  PAGE 6


  -------         ENDPROC       _OSTASKSUSPEND
  -------         PROC          OSFINDNEXTRUNNINGTASK
  -------         DO            
  D:0007H         SYMBOL        temp
  -------         ENDDO         
  C:07C4H         LINE#         314
  C:07C4H         LINE#         318
  C:07C9H         LINE#         321
  C:07CCH         LINE#         322
  C:07CCH         LINE#         323
  C:07D0H         LINE#         324
  C:07D0H         LINE#         325
  C:07D0H         LINE#         326
  C:07D0H         LINE#         327
  C:07D4H         LINE#         328
  C:07DBH         LINE#         351
  -------         ENDPROC       OSFINDNEXTRUNNINGTASK
  -------         PROC          OSINTEXIT
  C:06CDH         LINE#         368
  C:06CDH         LINE#         371
  C:06D1H         LINE#         373
  C:06D8H         LINE#         374
  C:06D8H         LINE#         375
  C:06DAH         LINE#         376
  C:06DAH         LINE#         377
  C:06DEH         LINE#         378
  C:06DEH         LINE#         379
  C:06E0H         LINE#         380
  C:06E3H         LINE#         381
  C:06E6H         LINE#         382
  C:06E9H         LINE#         383
  C:06E9H         LINE#         384
  C:06EEH         LINE#         385
  C:06F0H         LINE#         386
  -------         ENDPROC       OSINTEXIT
  -------         PROC          OSSCHED
  C:07DCH         LINE#         403
  C:07DCH         LINE#         406
  C:07E0H         LINE#         407
  C:07E4H         LINE#         408
  C:07E4H         LINE#         409
  C:07E7H         LINE#         410
  C:07EAH         LINE#         411
  C:07EAH         LINE#         412
  C:07EFH         LINE#         413
  -------         ENDPROC       OSSCHED
  -------         PROC          OSTIMETICK
  -------         DO            
  D:0007H         SYMBOL        i
  -------         ENDDO         
  C:0759H         LINE#         430
  C:0759H         LINE#         434
  C:075BH         LINE#         435
  C:075BH         LINE#         436
  C:0762H         LINE#         437
  C:0762H         LINE#         438
  C:0763H         LINE#         439
BL51 BANKED LINKER/LOCATER V6.22                                                      07/19/2013  23:45:31  PAGE 7


  C:076AH         LINE#         440
  C:076AH         LINE#         442
  C:0771H         LINE#         453
  C:0771H         LINE#         454
  C:0771H         LINE#         455
  C:0775H         LINE#         456
  C:0778H         LINE#         457
  -------         ENDPROC       OSTIMETICK
  -------         PROC          _OSTIMEDLY
  D:0007H         SYMBOL        ticks
  C:0714H         LINE#         475
  C:0714H         LINE#         477
  C:071BH         LINE#         478
  C:071FH         LINE#         479
  C:0727H         LINE#         480
  C:0727H         LINE#         481
  C:072CH         LINE#         482
  C:072FH         LINE#         483
  C:0731H         LINE#         484
  C:0736H         LINE#         485
  -------         ENDPROC       _OSTIMEDLY
  -------         PROC          _OSTIMEDLYRESUME
  D:0007H         SYMBOL        TaskID
  C:085CH         LINE#         502
  C:085CH         LINE#         504
  C:0862H         LINE#         505
  C:0865H         LINE#         506
  -------         ENDPROC       _OSTIMEDLYRESUME
  -------         PROC          _OSWAIT
  D:0007H         SYMBOL        typ
  D:0005H         SYMBOL        ticks
  C:03A9H         LINE#         534
  C:03A9H         LINE#         536
  C:03B0H         LINE#         538
  C:03BCH         LINE#         539
  C:03BCH         LINE#         540
  C:03BCH         LINE#         541
  C:03C1H         LINE#         542
  C:03C4H         LINE#         543
  C:03C4H         LINE#         544
  C:03CEH         LINE#         545
  C:03D1H         LINE#         546
  C:03D1H         LINE#         548
  C:03D5H         LINE#         549
  C:03DDH         LINE#         550
  C:03DDH         LINE#         551
  C:03E0H         LINE#         552
  C:03E0H         LINE#         553
  C:03E5H         LINE#         554
  C:03E8H         LINE#         555
  C:03EDH         LINE#         556
  C:03F5H         LINE#         557
  C:03F5H         LINE#         558
  C:03F7H         LINE#         559
  C:03FAH         LINE#         560
  C:03FAH         LINE#         561
  C:03FDH         LINE#         562
BL51 BANKED LINKER/LOCATER V6.22                                                      07/19/2013  23:45:31  PAGE 8


  C:03FDH         LINE#         563
  C:0404H         LINE#         564
  C:0406H         LINE#         565
  C:0406H         LINE#         566
  -------         ENDPROC       _OSWAIT
  -------         ENDMOD        OS_CORE

  -------         MODULE        OS_Q
  C:0000H         SYMBOL        _ICE_DUMMY_
  D:0090H         PUBLIC        P1
  D:00B0H         PUBLIC        P3
  D:00A8H         PUBLIC        IE
  D:00B8H         PUBLIC        IP
  D:0098H         PUBLIC        SCON
  D:0088H         PUBLIC        TCON
  D:00C8H         PUBLIC        T2CON
  D:00D0H         PUBLIC        PSW
  -------         ENDMOD        OS_Q

  -------         MODULE        OS_SEM
  C:0000H         SYMBOL        _ICE_DUMMY_
  D:0090H         PUBLIC        P1
  D:00B0H         PUBLIC        P3
  B:00A8H.7       PUBLIC        EA
  I:002EH         PUBLIC        OsSemBuf
  D:00A8H         PUBLIC        IE
  D:00B8H         PUBLIC        IP
  C:0652H         PUBLIC        _OSSemCreate
  D:0081H         PUBLIC        SP
  D:0098H         PUBLIC        SCON
  D:0088H         PUBLIC        TCON
  C:02C4H         PUBLIC        _OSSemPend
  D:00C8H         PUBLIC        T2CON
  C:0407H         PUBLIC        _OSSemPost
  D:00D0H         PUBLIC        PSW
  -------         PROC          _OSSEMCREATE
  D:0007H         SYMBOL        Index
  D:0005H         SYMBOL        Data
  C:0652H         LINE#         68
  C:0652H         LINE#         69
  C:0652H         LINE#         70
  C:0656H         LINE#         71
  C:065CH         LINE#         72
  C:065CH         LINE#         74
  C:0666H         LINE#         75
  C:066EH         LINE#         82
  C:0673H         LINE#         83
  C:0676H         LINE#         84
  C:0676H         LINE#         85
  C:067BH         LINE#         86
  C:067DH         LINE#         87
  -------         ENDPROC       _OSSEMCREATE
  -------         PROC          _OSSEMPEND
  D:0007H         SYMBOL        Index
  D:0005H         SYMBOL        Tick
  C:02C4H         LINE#         122
  C:02C4H         LINE#         123
BL51 BANKED LINKER/LOCATER V6.22                                                      07/19/2013  23:45:31  PAGE 9


  C:02C4H         LINE#         131
  C:02C8H         LINE#         133
  C:02D1H         LINE#         137
  C:02DFH         LINE#         150
  C:02E8H         LINE#         151
  C:02E8H         LINE#         158
  C:02EAH         LINE#         159
  C:02F0H         LINE#         162
  C:02F5H         LINE#         163
  C:02F8H         LINE#         166
  C:02FEH         LINE#         167
  C:0300H         LINE#         170
  C:0308H         LINE#         171
  C:0308H         LINE#         172
  C:030AH         LINE#         173
  C:030AH         LINE#         174
  C:030CH         LINE#         178
  C:031BH         LINE#         191
  C:0327H         LINE#         192
  C:0327H         LINE#         193
  C:0328H         LINE#         199
  C:032DH         LINE#         200
  C:0330H         LINE#         201
  C:0330H         LINE#         203
  C:0330H         LINE#         205
  C:0335H         LINE#         206
  C:0337H         LINE#         207
  C:0337H         LINE#         208
  -------         ENDPROC       _OSSEMPEND
  -------         PROC          _OSSEMPOST
  D:0007H         SYMBOL        Index
  -------         DO            
  D:0006H         SYMBOL        temp
  D:0005H         SYMBOL        i
  -------         ENDDO         
  C:0407H         LINE#         292
  C:0407H         LINE#         293
  C:0407H         LINE#         303
  C:040BH         LINE#         307
  C:0417H         LINE#         308
  C:0417H         LINE#         309
  C:0418H         LINE#         310
  C:0418H         LINE#         312
  C:0420H         LINE#         313
  C:0422H         LINE#         314
  C:0422H         LINE#         315
  C:0426H         LINE#         316
  C:0426H         LINE#         317
  C:0426H         LINE#         318
  C:0426H         LINE#         319
  C:042AH         LINE#         320
  C:042FH         LINE#         322
  C:0435H         LINE#         323
  C:0435H         LINE#         324
  C:0443H         LINE#         325
  C:0448H         LINE#         326
  C:0448H         LINE#         369
BL51 BANKED LINKER/LOCATER V6.22                                                      07/19/2013  23:45:31  PAGE 10


  C:044DH         LINE#         370
  C:044FH         LINE#         371
  -------         ENDPROC       _OSSEMPOST
  -------         ENDMOD        OS_SEM

  -------         MODULE        MAIN
  C:0000H         SYMBOL        _ICE_DUMMY_
  D:0090H         PUBLIC        P1
  D:00B0H         PUBLIC        P3
  B:00A8H.7       PUBLIC        EA
  D:00A8H         PUBLIC        IE
  D:00B8H         PUBLIC        IP
  C:0816H         PUBLIC        main
  C:0851H         PUBLIC        _putch
  D:0099H         PUBLIC        SBUF
  D:0098H         PUBLIC        SCON
  D:0088H         PUBLIC        TCON
  C:07F0H         PUBLIC        init_task
  D:008AH         PUBLIC        TL0
  C:051DH         PUBLIC        TaskA
  C:055CH         PUBLIC        TaskB
  C:058FH         PUBLIC        TaskC
  C:0624H         PUBLIC        TaskD
  D:00C8H         PUBLIC        T2CON
  D:00D0H         PUBLIC        PSW
  -------         PROC          _PUTCH
  D:0007H         SYMBOL        Data
  -------         DO            
  D:0007H         SYMBOL        i
  D:0006H         SYMBOL        j
  -------         ENDDO         
  C:0851H         LINE#         50
  C:0851H         LINE#         51
  C:0851H         LINE#         54
  C:0853H         LINE#         55
  C:0855H         LINE#         56
  C:0857H         LINE#         58
  C:0857H         LINE#         60
  C:0857H         LINE#         61
  C:0859H         LINE#         62
  C:085BH         LINE#         63
  -------         ENDPROC       _PUTCH
  -------         PROC          INIT_TASK
  C:07F0H         LINE#         65
  C:07F0H         LINE#         66
  C:07F0H         LINE#         67
  C:07F3H         LINE#         68
  C:07F5H         LINE#         70
  C:07F5H         LINE#         71
  C:07F5H         LINE#         72
  C:07FAH         LINE#         73
  C:0801H         LINE#         74
  -------         ENDPROC       INIT_TASK
  -------         PROC          MAIN
  C:0816H         LINE#         77
  C:0816H         LINE#         78
  C:0816H         LINE#         79
BL51 BANKED LINKER/LOCATER V6.22                                                      07/19/2013  23:45:31  PAGE 11


  C:0819H         LINE#         81
  C:0824H         LINE#         87
  C:0824H         LINE#         88
  C:0824H         LINE#         91
  -------         ENDPROC       MAIN
  -------         PROC          TASKA
  C:051DH         LINE#         94
  C:051DH         LINE#         95
  C:051DH         LINE#         96
  C:0520H         LINE#         105
  C:0522H         LINE#         107
  C:0529H         LINE#         108
  C:0529H         LINE#         109
  C:0529H         LINE#         110
  C:052FH         LINE#         111
  C:0534H         LINE#         112
  C:0539H         LINE#         113
  C:053EH         LINE#         114
  C:0543H         LINE#         115
  C:0548H         LINE#         116
  C:054DH         LINE#         117
  C:0552H         LINE#         118
  C:0559H         LINE#         119
  -------         ENDPROC       TASKA
  -------         PROC          TASKB
  C:055CH         LINE#         122
  C:055CH         LINE#         123
  C:055CH         LINE#         124
  C:055CH         LINE#         125
  C:055CH         LINE#         126
  C:0562H         LINE#         127
  C:0567H         LINE#         128
  C:056CH         LINE#         129
  C:0571H         LINE#         130
  C:0576H         LINE#         131
  C:057BH         LINE#         132
  C:0580H         LINE#         133
  C:0585H         LINE#         134
  C:058CH         LINE#         135
  -------         ENDPROC       TASKB
  -------         PROC          TASKC
  C:058FH         LINE#         138
  C:058FH         LINE#         139
  C:058FH         LINE#         140
  C:058FH         LINE#         141
  C:058FH         LINE#         142
  C:0595H         LINE#         143
  C:059AH         LINE#         144
  C:059FH         LINE#         145
  C:05A4H         LINE#         146
  C:05A9H         LINE#         147
  C:05AEH         LINE#         148
  C:05B3H         LINE#         149
  C:05B8H         LINE#         150
  C:05BFH         LINE#         151
  -------         ENDPROC       TASKC
  -------         PROC          TASKD
BL51 BANKED LINKER/LOCATER V6.22                                                      07/19/2013  23:45:31  PAGE 12


  -------         DO            
  D:0005H         SYMBOL        i
  -------         ENDDO         
  C:0624H         LINE#         154
  C:0624H         LINE#         155
  C:0624H         LINE#         158
  C:0624H         LINE#         159
  C:0624H         LINE#         160
  C:062AH         LINE#         161
  C:062CH         LINE#         162
  C:062CH         LINE#         163
  C:0631H         LINE#         164
  C:0636H         LINE#         165
  C:063BH         LINE#         166
  C:0640H         LINE#         167
  C:0645H         LINE#         168
  C:064AH         LINE#         169
  C:064FH         LINE#         170
  -------         ENDPROC       TASKD
  -------         ENDMOD        MAIN

  -------         MODULE        CPU
  C:0000H         SYMBOL        _ICE_DUMMY_
  D:0098H         PUBLIC        SFR_SCON
  D:0089H         PUBLIC        SFR_TMOD
  D:0088H         PUBLIC        SFR_TCON
  D:0010H         PUBLIC        INT_STATUS2_ACC
  B:00A8H.6       PUBLIC        SFR_ES1
  B:00A8H.1       PUBLIC        SFR_ET0
  B:00A8H.3       PUBLIC        SFR_ET1
  B:00A8H.5       PUBLIC        SFR_ET2
  D:008CH         PUBLIC        SFR_TH0
  B:00A8H.0       PUBLIC        SFR_EX0
  D:008DH         PUBLIC        SFR_TH1
  B:00A8H.2       PUBLIC        SFR_EX1
  D:008AH         PUBLIC        SFR_TL0
  D:00E8H         PUBLIC        SFR_EIE
  D:00F8H         PUBLIC        SFR_EIP
  C:0338H         PUBLIC        ext0_int
  B:00E8H.0       PUBLIC        SFR_EINT2
  D:0011H         PUBLIC        VH_Loss_Changed
  B:00E8H.1       PUBLIC        SFR_EINT3
  B:00E8H.2       PUBLIC        SFR_EINT4
  D:00C0H         PUBLIC        SFR_SCON1
  D:0013H         PUBLIC        INT_STATUS
  B:00E8H.3       PUBLIC        SFR_EINT5
  C:06A6H         PUBLIC        ext4_int
  B:00E8H.4       PUBLIC        SFR_EINT6
  D:00C8H         PUBLIC        SFR_T2CON
  D:008EH         PUBLIC        SFR_CKCON
  D:00D0H         PUBLIC        SFR_PSW
  D:009AH         PUBLIC        TWBASE
  D:00D8H         PUBLIC        SFR_WDCON
  D:0080H         PUBLIC        SFR_P0
  D:0090H         PUBLIC        SFR_P1
  D:00A0H         PUBLIC        SFR_P2
  D:00B0H         PUBLIC        SFR_P3
BL51 BANKED LINKER/LOCATER V6.22                                                      07/19/2013  23:45:31  PAGE 13


  D:0014H         PUBLIC        EXINT_STATUS
  B:00A8H.7       PUBLIC        SFR_EA
  D:00FBH         PUBLIC        SFR_E2IE
  D:00FAH         PUBLIC        SFR_E2IF
  D:00FDH         PUBLIC        SFR_E2IM
  D:00A8H         PUBLIC        SFR_IE
  D:0015H         PUBLIC        INT_STATUS_ACC
  D:0016H         PUBLIC        regTW88
  D:00FCH         PUBLIC        SFR_E2IP
  D:009EH         PUBLIC        SFR_UART0FIFO
  C:004EH         PUBLIC        init_cpu
  D:00FEH         PUBLIC        SFR_E2IT
  D:00E2H         PUBLIC        SFR_CAMC
  B:00A8H.4       PUBLIC        SFR_ES
  D:0018H         PUBLIC        INT_STATUS2
  D:00B8H         PUBLIC        SFR_IP
  D:0019H         PUBLIC        INT_STATUS3
  D:001AH         PUBLIC        MCU_INT_STATUS
  D:001CH         PUBLIC        INT_MASK
  D:0087H         PUBLIC        SFR_PCON
  -------         PROC          EXT0_INT
  C:0338H         LINE#         18
  C:0343H         LINE#         20
  C:0345H         LINE#         28
  C:0352H         LINE#         29
  C:035EH         LINE#         30
  C:036CH         LINE#         31
  C:0377H         LINE#         32
  C:0389H         LINE#         34
  C:038EH         LINE#         35
  C:0396H         LINE#         37
  C:039AH         LINE#         38
  C:039EH         LINE#         40
  C:03A0H         LINE#         41
  -------         ENDPROC       EXT0_INT
  -------         PROC          EXT4_INT
  C:06A6H         LINE#         43
  C:06ACH         LINE#         45
  C:06AEH         LINE#         48
  C:06BBH         LINE#         49
  C:06C4H         LINE#         52
  C:06C6H         LINE#         53
  -------         ENDPROC       EXT4_INT
  -------         PROC          INIT_CPU
  C:004EH         LINE#         55
  C:004EH         LINE#         56
  C:004EH         LINE#         57
  C:0051H         LINE#         58
  C:0054H         LINE#         63
  C:0063H         LINE#         64
  C:0072H         LINE#         66
  C:0081H         LINE#         67
  C:0090H         LINE#         69
  C:009EH         LINE#         70
  C:00ADH         LINE#         72
  C:00BBH         LINE#         73
  C:00CAH         LINE#         75
BL51 BANKED LINKER/LOCATER V6.22                                                      07/19/2013  23:45:31  PAGE 14


  C:00D8H         LINE#         76
  C:00E7H         LINE#         79
  C:00EAH         LINE#         90
  C:00EDH         LINE#         102
  C:00F0H         LINE#         112
  C:00F3H         LINE#         113
  C:00F6H         LINE#         116
  C:00F9H         LINE#         120
  C:00FCH         LINE#         130
  C:00FFH         LINE#         140
  C:0102H         LINE#         150
  C:0105H         LINE#         155
  C:0107H         LINE#         156
  C:0109H         LINE#         157
  C:010BH         LINE#         158
  C:010DH         LINE#         159
  C:010FH         LINE#         160
  C:0111H         LINE#         161
  C:0114H         LINE#         167
  C:0116H         LINE#         170
  C:0118H         LINE#         174
  C:011AH         LINE#         175
  C:011CH         LINE#         179
  C:011EH         LINE#         181
  C:0120H         LINE#         182
  C:0122H         LINE#         190
  C:0124H         LINE#         191
  C:0126H         LINE#         192
  C:0128H         LINE#         193
  C:012BH         LINE#         194
  C:012DH         LINE#         202
  C:012FH         LINE#         219
  -------         ENDPROC       INIT_CPU
  -------         ENDMOD        CPU

  -------         MODULE        OS_CPU_C
  C:0000H         SYMBOL        _ICE_DUMMY_
  D:0090H         PUBLIC        P1
  D:00B0H         PUBLIC        P3
  C:067EH         PUBLIC        _OSTaskStkDel
  B:00A8H.7       PUBLIC        EA
  C:04DAH         PUBLIC        _StkDelA
  C:0496H         PUBLIC        _StkDelB
  C:0793H         PUBLIC        _StkDelC
  D:00A8H         PUBLIC        IE
  D:00B8H         PUBLIC        IP
  C:0450H         PUBLIC        OSTickISR
  C:0827H         PUBLIC        OSCPUInit
  D:0081H         PUBLIC        SP
  D:0027H         PUBLIC        OSTsakStackBotton
  D:0098H         PUBLIC        SCON
  D:0088H         PUBLIC        TCON
  D:002DH         PUBLIC        OSFastSwap
  D:00C8H         PUBLIC        T2CON
  D:00D0H         PUBLIC        PSW
  -------         PROC          OSCPUINIT
  -------         DO            
BL51 BANKED LINKER/LOCATER V6.22                                                      07/19/2013  23:45:31  PAGE 15


  D:0007H         SYMBOL        i
  -------         ENDDO         
  C:0827H         LINE#         83
  C:0827H         LINE#         87
  C:0829H         LINE#         88
  C:0829H         LINE#         89
  C:082FH         LINE#         90
  C:0833H         LINE#         91
  C:0836H         LINE#         93
  -------         ENDPROC       OSCPUINIT
  -------         PROC          _STKDELA
  D:0007H         SYMBOL        TaskID
  -------         DO            
  D:0006H         SYMBOL        cp
  D:0005H         SYMBOL        cp1
  D:0004H         SYMBOL        temp
  D:0007H         SYMBOL        i
  -------         ENDDO         
  C:04DAH         LINE#         205
  C:04DAH         LINE#         206
  C:04DAH         LINE#         211
  C:04E0H         LINE#         212
  C:04E6H         LINE#         213
  C:04EBH         LINE#         214
  C:04F4H         LINE#         215
  C:04F4H         LINE#         216
  C:04FFH         LINE#         217
  C:0502H         LINE#         218
  C:0508H         LINE#         220
  C:0508H         LINE#         221
  C:0514H         LINE#         222
  C:0516H         LINE#         223
  C:051CH         LINE#         224
  -------         ENDPROC       _STKDELA
  -------         PROC          _STKDELB
  D:0007H         SYMBOL        TaskID
  -------         DO            
  D:0005H         SYMBOL        cp
  D:0004H         SYMBOL        cp1
  D:0005H         SYMBOL        temp
  D:0006H         SYMBOL        i
  -------         ENDDO         
  C:0496H         LINE#         227
  C:0496H         LINE#         228
  C:0496H         LINE#         233
  C:049EH         LINE#         234
  C:04A5H         LINE#         235
  C:04B0H         LINE#         236
  C:04B2H         LINE#         237
  C:04B2H         LINE#         239
  C:04B2H         LINE#         240
  C:04BEH         LINE#         241
  C:04C0H         LINE#         242
  C:04C0H         LINE#         243
  C:04C6H         LINE#         244
  C:04CFH         LINE#         245
  C:04CFH         LINE#         246
BL51 BANKED LINKER/LOCATER V6.22                                                      07/19/2013  23:45:31  PAGE 16


  C:04D6H         LINE#         247
  C:04D9H         LINE#         248
  -------         ENDPROC       _STKDELB
  -------         PROC          _STKDELC
  D:0007H         SYMBOL        TaskID
  -------         DO            
  D:0005H         SYMBOL        cp
  -------         ENDDO         
  C:0793H         LINE#         250
  C:0793H         LINE#         251
  C:0793H         LINE#         256
  C:0799H         LINE#         257
  C:079FH         LINE#         258
  C:07A4H         LINE#         259
  C:07A8H         LINE#         260
  C:07ABH         LINE#         261
  -------         ENDPROC       _STKDELC
  -------         PROC          _OSTASKSTKDEL
  D:0007H         SYMBOL        TaskID
  -------         DO            
  D:0006H         SYMBOL        temp
  -------         ENDDO         
  C:067EH         LINE#         263
  C:067EH         LINE#         267
  C:0680H         LINE#         268
  C:0684H         LINE#         269
  C:0684H         LINE#         270
  C:0685H         LINE#         271
  C:0687H         LINE#         272
  C:068DH         LINE#         273
  C:068DH         LINE#         274
  C:068FH         LINE#         275
  C:068FH         LINE#         276
  C:069AH         LINE#         277
  C:069AH         LINE#         278
  C:069AH         LINE#         279
  C:069DH         LINE#         280
  C:069EH         LINE#         281
  C:069EH         LINE#         282
  C:06A1H         LINE#         283
  C:06A2H         LINE#         284
  C:06A2H         LINE#         285
  C:06A5H         LINE#         286
  C:06A5H         LINE#         287
  C:06A5H         LINE#         288
  C:06A5H         LINE#         289
  C:06A5H         LINE#         290
  -------         ENDPROC       _OSTASKSTKDEL
  -------         PROC          OSTICKISR
  C:0450H         LINE#         312
  C:046FH         LINE#         330
  C:0473H         LINE#         333
  C:0476H         LINE#         338
  C:0479H         LINE#         339
  -------         ENDPROC       OSTICKISR
  -------         ENDMOD        OS_CPU_C

BL51 BANKED LINKER/LOCATER V6.22                                                      07/19/2013  23:45:31  PAGE 17


  -------         MODULE        OS_CPU_A_ASM
  C:0844H         SEGMENT       ?PR?OSCTXSW?OS_CPU_A
  C:05F5H         SEGMENT       ?PR?OSINTCTXSW?OS_CPU_A
  C:05C2H         SEGMENT       ?PR?LOADCTX?OS_CPU_A
  C:0130H         SEGMENT       ?PR?C_OSCTXSW?OS_CPU_A
  C:0248H         SEGMENT       ?PR?_OSTASKSTKINIT?OS_CPU_A
  I:0032H         SEGMENT       ?STACK
  C:0130H         PUBLIC        C_OSCTXSW
  C:05C2H         PUBLIC        LOADCTX
  C:0844H         PUBLIC        OSCTXSW
  C:05F5H         PUBLIC        OSINTCTXSW
  I:0032H         PUBLIC        STACK
  C:0248H         PUBLIC        _OSTASKSTKINIT
  C:017DH         SYMBOL        ?C0001
  C:014EH         SYMBOL        ?C0002
  C:0154H         SYMBOL        ?C0003
  C:0171H         SYMBOL        ?C0004
  C:0177H         SYMBOL        ?C0005
  C:01B6H         SYMBOL        ?C0007
  C:0187H         SYMBOL        ?C0008
  C:018DH         SYMBOL        ?C0009
  C:01B9H         SYMBOL        ?C000R
  C:01ABH         SYMBOL        ?C0010
  C:01B1H         SYMBOL        ?C0011
  D:00E0H         SYMBOL        ACC
  D:00F0H         SYMBOL        B
  D:0083H         SYMBOL        DPH
  D:0082H         SYMBOL        DPL
  B:00A8H.7       SYMBOL        EA
  C:05CBH         SYMBOL        LOADCTX_0
  C:05EDH         SYMBOL        LOADCTX_2
  C:05F4H         SYMBOL        LOADCTX_3
  C:060AH         SYMBOL        OSINTCTXSW_0
  N:0000H         SYMBOL        OS_CPU_A_ASM
  D:00D0H         SYMBOL        PSW
  D:0081H         SYMBOL        SP
  C:027FH         SYMBOL        STKINIT11
  C:02B3H         SYMBOL        STKINIT12
  C:0291H         SYMBOL        STKINIT15
  C:02ADH         SYMBOL        STKINIT18
  C:0287H         SYMBOL        STKINIT5
  C:0262H         SYMBOL        STKINIT8
  C:0248H         LINE#         137
  C:024AH         LINE#         138
  C:024CH         LINE#         142
  C:024DH         LINE#         143
  C:0250H         LINE#         144
  C:0251H         LINE#         145
  C:0253H         LINE#         173
  C:0254H         LINE#         174
  C:0255H         LINE#         175
  C:0257H         LINE#         176
  C:0259H         LINE#         179
  C:025AH         LINE#         180
  C:025CH         LINE#         181
  C:025DH         LINE#         182
  C:025EH         LINE#         184
BL51 BANKED LINKER/LOCATER V6.22                                                      07/19/2013  23:45:31  PAGE 18


  C:0260H         LINE#         185
  C:0261H         LINE#         186
  C:0262H         LINE#         191
  C:0264H         LINE#         192
  C:0265H         LINE#         193
  C:0266H         LINE#         195
  C:0267H         LINE#         197
  C:0269H         LINE#         200
  C:026BH         LINE#         203
  C:026DH         LINE#         204
  C:026FH         LINE#         205
  C:0271H         LINE#         207
  C:0273H         LINE#         208
  C:0274H         LINE#         209
  C:0275H         LINE#         210
  C:0277H         LINE#         211
  C:0278H         LINE#         212
  C:027AH         LINE#         213
  C:027BH         LINE#         214
  C:027CH         LINE#         215
  C:027DH         LINE#         217
  C:027FH         LINE#         222
  C:0280H         LINE#         223
  C:0281H         LINE#         224
  C:0282H         LINE#         225
  C:0283H         LINE#         227
  C:0285H         LINE#         229
  C:0287H         LINE#         234
  C:0289H         LINE#         235
  C:028BH         LINE#         236
  C:028CH         LINE#         238
  C:028DH         LINE#         239
  C:028EH         LINE#         240
  C:0290H         LINE#         241
  C:0291H         LINE#         246
  C:0293H         LINE#         247
  C:0294H         LINE#         248
  C:0295H         LINE#         250
  C:0296H         LINE#         252
  C:0298H         LINE#         255
  C:029AH         LINE#         256
  C:029CH         LINE#         257
  C:029DH         LINE#         258
  C:029EH         LINE#         259
  C:029FH         LINE#         261
  C:02A0H         LINE#         262
  C:02A2H         LINE#         263
  C:02A3H         LINE#         265
  C:02A5H         LINE#         266
  C:02A6H         LINE#         267
  C:02A7H         LINE#         268
  C:02A8H         LINE#         269
  C:02A9H         LINE#         270
  C:02AAH         LINE#         271
  C:02ABH         LINE#         273
  C:02ADH         LINE#         278
  C:02AEH         LINE#         279
BL51 BANKED LINKER/LOCATER V6.22                                                      07/19/2013  23:45:31  PAGE 19


  C:02AFH         LINE#         280
  C:02B0H         LINE#         281
  C:02B1H         LINE#         283
  C:02B3H         LINE#         287
  C:02B5H         LINE#         288
  C:02B6H         LINE#         289
  C:02B7H         LINE#         290
  C:02B8H         LINE#         291
  C:02B9H         LINE#         293
  C:02BBH         LINE#         294
  C:02BCH         LINE#         295
  C:02BDH         LINE#         297
  C:02BFH         LINE#         298
  C:02C0H         LINE#         299
  C:02C1H         LINE#         309
  C:02C2H         LINE#         310
  C:02C3H         LINE#         312
  C:05C2H         LINE#         340
  C:05C4H         LINE#         348
  C:05C6H         LINE#         349
  C:05C9H         LINE#         350
  C:05CBH         LINE#         352
  C:05CEH         LINE#         354
  C:05CFH         LINE#         355
  C:05D1H         LINE#         367
  C:05D3H         LINE#         369
  C:05D5H         LINE#         370
  C:05D7H         LINE#         371
  C:05D9H         LINE#         372
  C:05DBH         LINE#         373
  C:05DDH         LINE#         374
  C:05DFH         LINE#         375
  C:05E1H         LINE#         376
  C:05E3H         LINE#         377
  C:05E5H         LINE#         378
  C:05E7H         LINE#         379
  C:05E9H         LINE#         380
  C:05EBH         LINE#         381
  C:05EDH         LINE#         384
  C:05EFH         LINE#         385
  C:05F2H         LINE#         386
  C:05F4H         LINE#         388
  C:0844H         LINE#         415
  C:0846H         LINE#         417
  C:0849H         LINE#         418
  C:084BH         LINE#         420
  C:084CH         LINE#         421
  C:084EH         LINE#         434
  C:0130H         LINE#         457
  C:0132H         LINE#         460
  C:0134H         LINE#         466
  C:0135H         LINE#         468
  C:0137H         LINE#         469
  C:0139H         LINE#         470
  C:013AH         LINE#         471
  C:013BH         LINE#         472
  C:013CH         LINE#         474
BL51 BANKED LINKER/LOCATER V6.22                                                      07/19/2013  23:45:31  PAGE 20


  C:013EH         LINE#         475
  C:0140H         LINE#         476
  C:0141H         LINE#         477
  C:0142H         LINE#         478
  C:0143H         LINE#         480
  C:0145H         LINE#         481
  C:0146H         LINE#         482
  C:0148H         LINE#         483
  C:014AH         LINE#         489
  C:014BH         LINE#         490
  C:014CH         LINE#         491
  C:014DH         LINE#         492
  C:014EH         LINE#         494
  C:014FH         LINE#         495
  C:0150H         LINE#         496
  C:0151H         LINE#         497
  C:0152H         LINE#         498
  C:0154H         LINE#         501
  C:0156H         LINE#         502
  C:0158H         LINE#         503
  C:0159H         LINE#         504
  C:015AH         LINE#         505
  C:015BH         LINE#         507
  C:015CH         LINE#         508
  C:015DH         LINE#         510
  C:015EH         LINE#         511
  C:0160H         LINE#         516
  C:0162H         LINE#         517
  C:0163H         LINE#         518
  C:0165H         LINE#         519
  C:0166H         LINE#         520
  C:0168H         LINE#         522
  C:016AH         LINE#         523
  C:016CH         LINE#         524
  C:016DH         LINE#         525
  C:016EH         LINE#         526
  C:016FH         LINE#         527
  C:0170H         LINE#         528
  C:0171H         LINE#         530
  C:0172H         LINE#         531
  C:0173H         LINE#         532
  C:0174H         LINE#         533
  C:0175H         LINE#         534
  C:0177H         LINE#         537
  C:017AH         LINE#         539
  C:017DH         LINE#         544
  C:017FH         LINE#         545
  C:0181H         LINE#         546
  C:0183H         LINE#         558
  C:0184H         LINE#         559
  C:0185H         LINE#         560
  C:0186H         LINE#         561
  C:0187H         LINE#         563
  C:0188H         LINE#         564
  C:0189H         LINE#         565
  C:018AH         LINE#         566
  C:018BH         LINE#         567
BL51 BANKED LINKER/LOCATER V6.22                                                      07/19/2013  23:45:31  PAGE 21


  C:018DH         LINE#         570
  C:018FH         LINE#         571
  C:0191H         LINE#         572
  C:0192H         LINE#         573
  C:0193H         LINE#         574
  C:0194H         LINE#         576
  C:0195H         LINE#         577
  C:0196H         LINE#         579
  C:0198H         LINE#         580
  C:019AH         LINE#         581
  C:019BH         LINE#         582
  C:019CH         LINE#         583
  C:019EH         LINE#         589
  C:01A0H         LINE#         590
  C:01A1H         LINE#         591
  C:01A3H         LINE#         592
  C:01A5H         LINE#         594
  C:01A6H         LINE#         595
  C:01A8H         LINE#         596
  C:01AAH         LINE#         597
  C:01ABH         LINE#         599
  C:01ACH         LINE#         600
  C:01ADH         LINE#         601
  C:01AEH         LINE#         602
  C:01AFH         LINE#         603
  C:01B1H         LINE#         607
  C:01B4H         LINE#         609
  C:01B6H         LINE#         613
  C:01B9H         LINE#         618
  C:05F5H         LINE#         642
  C:05F7H         LINE#         643
  C:05F9H         LINE#         644
  C:05FBH         LINE#         647
  C:05FDH         LINE#         648
  C:05FFH         LINE#         649
  C:0601H         LINE#         651
  C:0603H         LINE#         652
  C:0605H         LINE#         653
  C:0607H         LINE#         654
  C:0609H         LINE#         655
  C:060AH         LINE#         659
  C:060CH         LINE#         660
  C:060EH         LINE#         661
  C:0610H         LINE#         663
  C:0613H         LINE#         664
  C:0615H         LINE#         666
  C:0616H         LINE#         667
  C:0617H         LINE#         668
  C:0619H         LINE#         689
  C:061BH         LINE#         691
  C:061DH         LINE#         692
  C:061FH         LINE#         693
  C:0621H         LINE#         694
  C:0623H         LINE#         695
  -------         ENDMOD        OS_CPU_A_ASM

*** WARNING L12: NO REFERENCE BETWEEN SEGMENTS
BL51 BANKED LINKER/LOCATER V6.22                                                      07/19/2013  23:45:31  PAGE 22


    SEGMENT1: ?PR?TASKB?MAIN
    SEGMENT2: ?PR?MAIN?MAIN

*** WARNING L12: NO REFERENCE BETWEEN SEGMENTS
    SEGMENT1: ?PR?TASKC?MAIN
    SEGMENT2: ?PR?MAIN?MAIN

*** WARNING L12: NO REFERENCE BETWEEN SEGMENTS
    SEGMENT1: ?PR?TASKD?MAIN
    SEGMENT2: ?PR?MAIN?MAIN

*** WARNING L16: UNCALLED SEGMENT, IGNORED FOR OVERLAY PROCESS
    SEGMENT: ?PR?_OSTASKDEL?OS_CORE

*** WARNING L16: UNCALLED SEGMENT, IGNORED FOR OVERLAY PROCESS
    SEGMENT: ?PR?_OSTIMEDLYRESUME?OS_CORE

*** WARNING L16: UNCALLED SEGMENT, IGNORED FOR OVERLAY PROCESS
    SEGMENT: ?PR?TASKA?MAIN

*** WARNING L16: UNCALLED SEGMENT, IGNORED FOR OVERLAY PROCESS
    SEGMENT: ?PR?TASKB?MAIN

*** WARNING L16: UNCALLED SEGMENT, IGNORED FOR OVERLAY PROCESS
    SEGMENT: ?PR?TASKC?MAIN

*** WARNING L16: UNCALLED SEGMENT, IGNORED FOR OVERLAY PROCESS
    SEGMENT: ?PR?TASKD?MAIN

Program Size: data=52.0 xdata=0 code=2153
LINK/LOCATE RUN COMPLETE.  9 WARNING(S),  0 ERROR(S)
